ccopy_reg
_reconstructor
p0
(csklearn.pipeline
Pipeline
p1
c__builtin__
object
p2
Ntp3
Rp4
(dp5
S'steps'
p6
(lp7
(S'minmax'
p8
g0
(csklearn.preprocessing.data
MinMaxScaler
p9
g2
Ntp10
Rp11
(dp12
S'copy'
p13
I01
sS'feature_range'
p14
(I0
I1
tp15
sbtp16
a(S'skb'
p17
g0
(csklearn.feature_selection.univariate_selection
SelectKBest
p18
g2
Ntp19
Rp20
(dp21
S'k'
p22
S'all'
p23
sS'score_func'
p24
csklearn.feature_selection.univariate_selection
f_classif
p25
sbtp26
a(S'lr'
p27
g0
(csklearn.linear_model.logistic
LogisticRegression
p28
g2
Ntp29
Rp30
(dp31
S'C'
p32
F0.05
sS'max_iter'
p33
I100
sS'verbose'
p34
I0
sS'intercept_scaling'
p35
I1
sS'dual'
p36
I00
sS'fit_intercept'
p37
I01
sS'solver'
p38
S'liblinear'
p39
sS'penalty'
p40
S'l2'
p41
sS'multi_class'
p42
S'ovr'
p43
sS'random_state'
p44
NsS'tol'
p45
F0.1
sS'class_weight'
p46
S'auto'
p47
sbtp48
asS'named_steps'
p49
(dp50
g8
g11
sg27
g30
sg17
g20
ssb.